target datalayout = "e-m:e-p270:32:32-p271:32:32-p272:64:64-i64:64-i128:128-f80:128-n8:16:32:64-S128"
target triple = "x86_64-pc-linux-gnu"

%struct.H5D_chunk_common_ud_t = type { ptr, ptr, ptr }
%struct.H5D_btree_it_ud_t = type { %struct.H5D_chunk_common_ud_t, ptr, ptr }
%struct.H5D_chunk_rec_t = type { [33 x i64], i32, i32, i64 }

@H5D_init_g = external global i8, align 1
@H5_libterm_g = external global i8, align 1
@.str = private unnamed_addr constant [102 x i8] c"generated/home/dtcxzyw/WorkSpace/Projects/compilers/llvm-opt-benchmark/bench/hdf5/hdf5/src/H5Dbtree.c\00", align 1
@H5E_DATASET_g = external global i64, align 8
@__func__.H5D__btree_idx_iterate_cb = private unnamed_addr constant [26 x i8] c"H5D__btree_idx_iterate_cb\00", align 1
@H5E_CALLBACK_g = external global i64, align 8
@.str.9 = private unnamed_addr constant [43 x i8] c"failure in generic chunk iterator callback\00", align 1

; Function Attrs: nounwind uwtable
define internal i32 @H5D__btree_idx_iterate_cb(ptr noundef %0, ptr noundef %1, i64 noundef %2, ptr noundef %3, ptr noundef %4) #0 {
  %6 = alloca ptr, align 8
  %7 = alloca ptr, align 8
  %8 = alloca i64, align 8
  %9 = alloca ptr, align 8
  %10 = alloca ptr, align 8
  %11 = alloca ptr, align 8
  %12 = alloca ptr, align 8
  %13 = alloca %struct.H5D_chunk_rec_t, align 8
  %14 = alloca i32, align 4
  store ptr %0, ptr %6, align 8, !tbaa !56
  store ptr %1, ptr %7, align 8, !tbaa !41
  store i64 %2, ptr %8, align 8, !tbaa !10
  store ptr %3, ptr %9, align 8, !tbaa !41
  store ptr %4, ptr %10, align 8, !tbaa !41
  call void @llvm.lifetime.start.p0(i64 8, ptr %11) #8
  %15 = load ptr, ptr %10, align 8, !tbaa !41
  store ptr %15, ptr %11, align 8, !tbaa !76
  call void @llvm.lifetime.start.p0(i64 8, ptr %12) #8
  %16 = load ptr, ptr %7, align 8, !tbaa !41
  store ptr %16, ptr %12, align 8, !tbaa !78
  call void @llvm.lifetime.start.p0(i64 280, ptr %13) #8
  call void @llvm.lifetime.start.p0(i64 4, ptr %14) #8
  store i32 -1, ptr %14, align 4, !tbaa !12
  %17 = load i8, ptr @H5D_init_g, align 1, !tbaa !14, !range !16, !noundef !17
  %18 = trunc i8 %17 to i1
  br i1 %18, label %23, label %19

19:                                               ; preds = %5
  %20 = load i8, ptr @H5_libterm_g, align 1, !tbaa !14, !range !16, !noundef !17
  %21 = trunc i8 %20 to i1
  %22 = xor i1 %21, true
  br label %23

23:                                               ; preds = %19, %5
  %24 = phi i1 [ true, %5 ], [ %22, %19 ]
  %25 = xor i1 %24, true
  %26 = xor i1 %25, true
  %27 = zext i1 %26 to i32
  %28 = sext i32 %27 to i64
  %29 = call i64 @llvm.expect.i64(i64 %28, i64 1)
  %30 = icmp ne i64 %29, 0
  br i1 %30, label %31, label %51

31:                                               ; preds = %23
  %32 = load ptr, ptr %12, align 8, !tbaa !78
  call void @llvm.memcpy.p0.p0.i64(ptr align 8 %13, ptr align 8 %32, i64 272, i1 false)
  %33 = load i64, ptr %8, align 8, !tbaa !10
  %34 = getelementptr inbounds nuw %struct.H5D_chunk_rec_t, ptr %13, i32 0, i32 3
  store i64 %33, ptr %34, align 8, !tbaa !80
  %35 = load ptr, ptr %11, align 8, !tbaa !76
  %36 = getelementptr inbounds nuw %struct.H5D_btree_it_ud_t, ptr %35, i32 0, i32 1
  %37 = load ptr, ptr %36, align 8, !tbaa !45
  %38 = load ptr, ptr %11, align 8, !tbaa !76
  %39 = getelementptr inbounds nuw %struct.H5D_btree_it_ud_t, ptr %38, i32 0, i32 2
  %40 = load ptr, ptr %39, align 8, !tbaa !46
  %41 = call i32 %37(ptr noundef %13, ptr noundef %40)
  store i32 %41, ptr %14, align 4, !tbaa !12
  %42 = icmp slt i32 %41, 0
  br i1 %42, label %43, label %50

43:                                               ; preds = %31
  br label %44

44:                                               ; preds = %43
  %45 = load i64, ptr @H5E_DATASET_g, align 8, !tbaa !10
  %46 = load i64, ptr @H5E_CALLBACK_g, align 8, !tbaa !10
  %47 = call i32 (ptr, ptr, i32, i64, i64, ptr, ...) @H5E_printf_stack(ptr noundef @.str, ptr noundef @__func__.H5D__btree_idx_iterate_cb, i32 noundef 1091, i64 noundef %45, i64 noundef %46, ptr noundef @.str.9)
  br label %48

48:                                               ; preds = %44
  br label %49

49:                                               ; preds = %48
  br label %50

50:                                               ; preds = %49, %31
  br label %51

51:                                               ; preds = %50, %23
  %52 = load i32, ptr %14, align 4, !tbaa !12
  call void @llvm.lifetime.end.p0(i64 4, ptr %14) #8
  call void @llvm.lifetime.end.p0(i64 280, ptr %13) #8
  call void @llvm.lifetime.end.p0(i64 8, ptr %12) #8
  call void @llvm.lifetime.end.p0(i64 8, ptr %11) #8
  ret i32 %52
}