; Function Attrs: nounwind uwtable
define internal i32 @H5D__btree_idx_iterate_cb(ptr readnone captures(none) %0, ptr noundef readonly captures(none) %1, i64 noundef %2, ptr readnone captures(none) %3, ptr noundef readonly captures(none) %4) #0 {
  %6 = alloca %struct.H5D_chunk_rec_t, align 8
  call void @llvm.lifetime.start.p0(i64 280, ptr nonnull %6) #15
  %7 = load i8, ptr @H5D_init_g, align 1, !tbaa !3, !range !7, !noundef !8
  %8 = trunc nuw i8 %7 to i1
  %9 = load i8, ptr @H5_libterm_g, align 1, !range !7
  %10 = trunc nuw i8 %9 to i1
  %11 = xor i1 %10, true
  %12 = select i1 %8, i1 true, i1 %11
  br i1 %12, label %13, label %25, !prof !9

13:                                               ; preds = %5
  call void @llvm.memcpy.p0.p0.i64(ptr noundef nonnull align 8 dereferenceable(272) %6, ptr noundef nonnull align 8 dereferenceable(272) %1, i64 272, i1 false)
  %14 = getelementptr inbounds nuw i8, ptr %6, i64 272
  store i64 %2, ptr %14, align 8, !tbaa !51
  %15 = getelementptr inbounds nuw i8, ptr %4, i64 24
  %16 = load ptr, ptr %15, align 8, !tbaa !33
  %17 = getelementptr inbounds nuw i8, ptr %4, i64 32
  %18 = load ptr, ptr %17, align 8, !tbaa !34
  %19 = call i32 %16(ptr noundef nonnull %6, ptr noundef %18) #15
  %20 = icmp slt i32 %19, 0
  br i1 %20, label %21, label %25

21:                                               ; preds = %13
  %22 = load i64, ptr @H5E_DATASET_g, align 8, !tbaa !20
  %23 = load i64, ptr @H5E_CALLBACK_g, align 8, !tbaa !20
  %24 = call i32 (ptr, ptr, i32, i64, i64, ptr, ...) @H5E_printf_stack(ptr noundef nonnull @.str, ptr noundef nonnull @__func__.H5D__btree_idx_iterate_cb, i32 noundef 1091, i64 noundef %22, i64 noundef %23, ptr noundef nonnull @.str.9) #15
  br label %25

25:                                               ; preds = %13, %21, %5
  %.0 = phi i32 [ %19, %21 ], [ %19, %13 ], [ -1, %5 ]
  call void @llvm.lifetime.end.p0(i64 280, ptr nonnull %6) #15
  ret i32 %.0
}